target datalayout = "e-m:e-p270:32:32-p271:32:32-p272:64:64-i64:64-i128:128-f80:128-n8:16:32:64-S128"
target triple = "x86_64-pc-linux-gnu"

%struct.strvec = type { ptr, i64, i64 }
%struct.strbuf = type { i64, i64, ptr }
%struct.diff_options = type { ptr, ptr, i32, i32, ptr, i32, ptr, i64, i64, ptr, ptr, ptr, ptr, %struct.diff_flags, i32, i32, i32, i32, i32, i32, i32, i32, i32, i32, i32, i32, i32, i32, i32, i32, i32, i32, i32, i32, i32, i32, ptr, i32, ptr, i32, i32, ptr, i64, i64, i32, i32, i32, i32, ptr, i32, i32, ptr, i32, i32, ptr, ptr, i32, [3 x i8], %struct.pathspec, ptr, ptr, ptr, ptr, ptr, ptr, ptr, ptr, i32, ptr, i32, i32, ptr, ptr, i32 }
%struct.diff_flags = type { i32, i32, i32, i32, i32, i32, i32, i32, i32, i32, i32, i32, i32, i32, i32, i32, i32, i32, i32, i32, i32, i32, i32, i32, i32, i32, i32, i32, i32, i32, i32, i32, i32, i32, i32 }
%struct.pathspec = type { i32, i8, i32, i32, ptr }
%struct.git_graph = type { ptr, ptr, i32, i32, i32, i32, i32, i32, i32, i32, i32, i32, i32, i32, i32, i32, ptr, ptr, ptr, ptr, i16, %struct.strbuf }
%struct.rev_info = type { ptr, %struct.object_array, ptr, %struct.object_array, %struct.rev_cmdline_info, %struct.list_objects_filter_options, %struct.ref_exclusions, ptr, ptr, ptr, %struct.pathspec, i32, i32, i32, i32, i64, i32, i32, %struct.date_mode, i32, i32, i32, i32, ptr, i32, i32, ptr, ptr, i32, ptr, ptr, %struct.ident_split, ptr, i32, ptr, ptr, ptr, i32, i32, i32, ptr, %struct.grep_opt, ptr, i32, i32, i64, i64, i64, i32, i32, ptr, ptr, ptr, %struct.diff_options, %struct.diff_options, ptr, %struct.decoration, %struct.decoration, %struct.decoration, %struct.display_notes_opt, ptr, ptr, ptr, ptr, ptr, i32, ptr, i32, i32, i32, %struct.decoration, ptr, ptr, ptr, ptr, ptr, ptr, ptr, i32, ptr, i32, ptr, %struct.oidset }
%struct.object_array = type { i32, i32, ptr }
%struct.rev_cmdline_info = type { i32, i32, ptr }
%struct.list_objects_filter_options = type { %struct.strbuf, i32, i8, ptr, i64, i64, i32, i64, i64, ptr }
%struct.ref_exclusions = type { %struct.string_list, %struct.strvec, i8 }
%struct.string_list = type { ptr, i64, i64, i8, ptr }
%struct.date_mode = type { i32, i32, ptr }
%struct.ident_split = type { ptr, ptr, ptr, ptr, ptr, ptr, ptr, ptr }
%struct.grep_opt = type { ptr, ptr, ptr, ptr, ptr, ptr, i32, i32, i32, i32, i32, i32, i32, i32, i32, i32, i32, i32, i32, i32, i32, i32, i32, i32, i32, i32, i32, i32, i32, i32, i32, i32, [9 x [75 x i8]], i32, i32, i32, i32, i32, i32, i32, ptr, ptr, ptr }
%struct.display_notes_opt = type { i32, %struct.string_list }
%struct.decoration = type { ptr, i32, i32, ptr }
%struct.oidset = type { %struct.kh_oid_set }
%struct.kh_oid_set = type { i32, i32, i32, i32, ptr, ptr, ptr }

@default_diffopt = internal global ptr null, align 8
@strbuf_slopbuf = external global [0 x i8], align 1
@__const.graph_show_remainder.msgbuf = private unnamed_addr constant %struct.strbuf { i64 0, i64 0, ptr @strbuf_slopbuf }, align 8
@.str.6 = private unnamed_addr constant [11 x i8] c"./strbuf.h\00", align 1
@.str.7 = private unnamed_addr constant [30 x i8] c"strbuf_setlen() beyond buffer\00", align 1

; Function Attrs: inlinehint nounwind uwtable
define internal void @strbuf_setlen(ptr noundef %0, i64 noundef %1) #4 {
  %3 = alloca ptr, align 8
  %4 = alloca i64, align 8
  store ptr %0, ptr %3, align 8, !tbaa !123
  store i64 %1, ptr %4, align 8, !tbaa !103
  %5 = load i64, ptr %4, align 8, !tbaa !103
  %6 = load ptr, ptr %3, align 8, !tbaa !123
  %7 = getelementptr inbounds nuw %struct.strbuf, ptr %6, i32 0, i32 0
  %8 = load i64, ptr %7, align 8, !tbaa !147
  %9 = icmp ne i64 %8, 0
  br i1 %9, label %10, label %15

10:                                               ; preds = %2
  %11 = load ptr, ptr %3, align 8, !tbaa !123
  %12 = getelementptr inbounds nuw %struct.strbuf, ptr %11, i32 0, i32 0
  %13 = load i64, ptr %12, align 8, !tbaa !147
  %14 = sub i64 %13, 1
  br label %16

15:                                               ; preds = %2
  br label %16

16:                                               ; preds = %15, %10
  %17 = phi i64 [ %14, %10 ], [ 0, %15 ]
  %18 = icmp ugt i64 %5, %17
  br i1 %18, label %19, label %20

19:                                               ; preds = %16
  call void (ptr, i32, ptr, ...) @BUG_fl(ptr noundef @.str.6, i32 noundef 167, ptr noundef @.str.7) #10
  unreachable

20:                                               ; preds = %16
  %21 = load i64, ptr %4, align 8, !tbaa !103
  %22 = load ptr, ptr %3, align 8, !tbaa !123
  %23 = getelementptr inbounds nuw %struct.strbuf, ptr %22, i32 0, i32 1
  store i64 %21, ptr %23, align 8, !tbaa !143
  %24 = load ptr, ptr %3, align 8, !tbaa !123
  %25 = getelementptr inbounds nuw %struct.strbuf, ptr %24, i32 0, i32 2
  %26 = load ptr, ptr %25, align 8, !tbaa !142
  %27 = icmp ne ptr %26, @strbuf_slopbuf
  br i1 %27, label %28, label %34

28:                                               ; preds = %20
  %29 = load ptr, ptr %3, align 8, !tbaa !123
  %30 = getelementptr inbounds nuw %struct.strbuf, ptr %29, i32 0, i32 2
  %31 = load ptr, ptr %30, align 8, !tbaa !142
  %32 = load i64, ptr %4, align 8, !tbaa !103
  %33 = getelementptr inbounds nuw i8, ptr %31, i64 %32
  store i8 0, ptr %33, align 1, !tbaa !134
  br label %35

34:                                               ; preds = %20
  br label %35

35:                                               ; preds = %34, %28
  ret void
}

; Function Attrs: nounwind uwtable
define dso_local i32 @graph_is_commit_finished(ptr noundef %0) #0 {
  %2 = alloca ptr, align 8
  store ptr %0, ptr %2, align 8, !tbaa !28
  %3 = load ptr, ptr %2, align 8, !tbaa !28
  %4 = getelementptr inbounds nuw %struct.git_graph, ptr %3, i32 0, i32 5
  %5 = load i32, ptr %4, align 4, !tbaa !81
  %6 = icmp eq i32 %5, 0
  %7 = zext i1 %6 to i32
  ret i32 %7
}

; Function Attrs: nounwind uwtable
define internal void @graph_show_line_prefix(ptr noundef %0) #0 {
  %2 = alloca ptr, align 8
  store ptr %0, ptr %2, align 8, !tbaa !11
  %3 = load ptr, ptr %2, align 8, !tbaa !11
  %4 = icmp ne ptr %3, null
  br i1 %4, label %5, label %10

5:                                                ; preds = %1
  %6 = load ptr, ptr %2, align 8, !tbaa !11
  %7 = getelementptr inbounds nuw %struct.diff_options, ptr %6, i32 0, i32 12
  %8 = load ptr, ptr %7, align 8, !tbaa !30
  %9 = icmp ne ptr %8, null
  br i1 %9, label %11, label %10

10:                                               ; preds = %5, %1
  br label %19

11:                                               ; preds = %5
  %12 = load ptr, ptr %2, align 8, !tbaa !11
  %13 = getelementptr inbounds nuw %struct.diff_options, ptr %12, i32 0, i32 12
  %14 = load ptr, ptr %13, align 8, !tbaa !30
  %15 = load ptr, ptr %2, align 8, !tbaa !11
  %16 = getelementptr inbounds nuw %struct.diff_options, ptr %15, i32 0, i32 55
  %17 = load ptr, ptr %16, align 8, !tbaa !146
  %18 = call i32 @fputs(ptr noundef %14, ptr noundef %17)
  br label %19

19:                                               ; preds = %11, %10
  ret void
}

; Function Attrs: nounwind uwtable
define dso_local i32 @graph_show_remainder(ptr noundef %0) #0 {
  %2 = alloca i32, align 4
  %3 = alloca ptr, align 8
  %4 = alloca %struct.strbuf, align 8
  %5 = alloca i32, align 4
  %6 = alloca i32, align 4
  store ptr %0, ptr %3, align 8, !tbaa !28
  call void @llvm.lifetime.start.p0(i64 24, ptr %4) #8
  call void @llvm.memcpy.p0.p0.i64(ptr align 8 %4, ptr align 8 @__const.graph_show_remainder.msgbuf, i64 24, i1 false)
  call void @llvm.lifetime.start.p0(i64 4, ptr %5) #8
  store i32 0, ptr %5, align 4, !tbaa !73
  %7 = load ptr, ptr @default_diffopt, align 8, !tbaa !11
  call void @graph_show_line_prefix(ptr noundef %7)
  %8 = load ptr, ptr %3, align 8, !tbaa !28
  %9 = icmp ne ptr %8, null
  br i1 %9, label %11, label %10

10:                                               ; preds = %1
  store i32 0, ptr %2, align 4
  store i32 1, ptr %6, align 4
  br label %50

11:                                               ; preds = %1
  %12 = load ptr, ptr %3, align 8, !tbaa !28
  %13 = call i32 @graph_is_commit_finished(ptr noundef %12)
  %14 = icmp ne i32 %13, 0
  br i1 %14, label %15, label %16

15:                                               ; preds = %11
  store i32 0, ptr %2, align 4
  store i32 1, ptr %6, align 4
  br label %50

16:                                               ; preds = %11
  br label %17

17:                                               ; preds = %47, %16
  %18 = load ptr, ptr %3, align 8, !tbaa !28
  %19 = call i32 @graph_next_line(ptr noundef %18, ptr noundef %4)
  %20 = getelementptr inbounds nuw %struct.strbuf, ptr %4, i32 0, i32 2
  %21 = load ptr, ptr %20, align 8, !tbaa !142
  %22 = getelementptr inbounds nuw %struct.strbuf, ptr %4, i32 0, i32 1
  %23 = load i64, ptr %22, align 8, !tbaa !143
  %24 = load ptr, ptr %3, align 8, !tbaa !28
  %25 = getelementptr inbounds nuw %struct.git_graph, ptr %24, i32 0, i32 1
  %26 = load ptr, ptr %25, align 8, !tbaa !78
  %27 = getelementptr inbounds nuw %struct.rev_info, ptr %26, i32 0, i32 53
  %28 = getelementptr inbounds nuw %struct.diff_options, ptr %27, i32 0, i32 55
  %29 = load ptr, ptr %28, align 8, !tbaa !144
  %30 = call i64 @fwrite(ptr noundef %21, i64 noundef 1, i64 noundef %23, ptr noundef %29)
  call void @strbuf_setlen(ptr noundef %4, i64 noundef 0)
  store i32 1, ptr %5, align 4, !tbaa !73
  %31 = load ptr, ptr %3, align 8, !tbaa !28
  %32 = call i32 @graph_is_commit_finished(ptr noundef %31)
  %33 = icmp ne i32 %32, 0
  br i1 %33, label %46, label %34

34:                                               ; preds = %17
  %35 = load ptr, ptr %3, align 8, !tbaa !28
  %36 = getelementptr inbounds nuw %struct.git_graph, ptr %35, i32 0, i32 1
  %37 = load ptr, ptr %36, align 8, !tbaa !78
  %38 = getelementptr inbounds nuw %struct.rev_info, ptr %37, i32 0, i32 53
  %39 = getelementptr inbounds nuw %struct.diff_options, ptr %38, i32 0, i32 55
  %40 = load ptr, ptr %39, align 8, !tbaa !144
  %41 = call i32 @putc(i32 noundef 10, ptr noundef %40)
  %42 = load ptr, ptr %3, align 8, !tbaa !28
  %43 = getelementptr inbounds nuw %struct.git_graph, ptr %42, i32 0, i32 1
  %44 = load ptr, ptr %43, align 8, !tbaa !78
  %45 = getelementptr inbounds nuw %struct.rev_info, ptr %44, i32 0, i32 53
  call void @graph_show_line_prefix(ptr noundef %45)
  br label %47

46:                                               ; preds = %17
  br label %48

47:                                               ; preds = %34
  br label %17

48:                                               ; preds = %46
  call void @strbuf_release(ptr noundef %4)
  %49 = load i32, ptr %5, align 4, !tbaa !73
  store i32 %49, ptr %2, align 4
  store i32 1, ptr %6, align 4
  br label %50

50:                                               ; preds = %48, %15, %10
  call void @llvm.lifetime.end.p0(i64 4, ptr %5) #8
  call void @llvm.lifetime.end.p0(i64 24, ptr %4) #8
  %51 = load i32, ptr %2, align 4
  ret i32 %51
}