; Function Attrs: nounwind uwtable
define dso_local range(i32 0, 2) i32 @graph_show_remainder(ptr noundef %0) local_unnamed_addr #2 {
  %2 = alloca %struct.strbuf, align 8
  call void @llvm.lifetime.start.p0(i64 24, ptr nonnull %2) #15
  call void @llvm.memcpy.p0.p0.i64(ptr noundef nonnull align 8 dereferenceable(24) %2, ptr noundef nonnull align 8 dereferenceable(24) @__const.graph_show_remainder.msgbuf, i64 24, i1 false)
  %3 = load ptr, ptr @default_diffopt, align 8, !tbaa !11
  %.not.i = icmp eq ptr %3, null
  br i1 %.not.i, label %graph_show_line_prefix.exit, label %4

4:                                                ; preds = %1
  %5 = getelementptr inbounds nuw i8, ptr %3, i64 88
  %6 = load ptr, ptr %5, align 8, !tbaa !31
  %.not5.i = icmp eq ptr %6, null
  br i1 %.not5.i, label %graph_show_line_prefix.exit, label %7

7:                                                ; preds = %4
  %8 = getelementptr inbounds nuw i8, ptr %3, i64 440
  %9 = load ptr, ptr %8, align 8, !tbaa !140
  %10 = tail call i32 @fputs(ptr noundef nonnull %6, ptr noundef %9)
  br label %graph_show_line_prefix.exit

graph_show_line_prefix.exit:                      ; preds = %1, %4, %7
  %.not = icmp eq ptr %0, null
  br i1 %.not, label %40, label %11

11:                                               ; preds = %graph_show_line_prefix.exit
  %12 = getelementptr inbounds nuw i8, ptr %0, i64 28
  %13 = load i32, ptr %12, align 4, !tbaa !121
  %.not14 = icmp eq i32 %13, 0
  br i1 %.not14, label %40, label %.preheader

.preheader:                                       ; preds = %11
  %14 = getelementptr inbounds nuw i8, ptr %2, i64 16
  %15 = getelementptr inbounds nuw i8, ptr %2, i64 8
  %16 = getelementptr inbounds nuw i8, ptr %0, i64 8
  br label %graph_show_line_prefix.exit13

graph_show_line_prefix.exit13:                    ; preds = %graph_show_line_prefix.exit13.backedge, %.preheader
  %17 = call i32 @graph_next_line(ptr noundef nonnull %0, ptr noundef nonnull %2)
  %18 = load ptr, ptr %14, align 8, !tbaa !29
  %19 = load i64, ptr %15, align 8, !tbaa !27
  %20 = load ptr, ptr %16, align 8, !tbaa !79
  %21 = getelementptr inbounds nuw i8, ptr %20, i64 1912
  %22 = load ptr, ptr %21, align 8, !tbaa !141
  %23 = call i64 @fwrite(ptr noundef %18, i64 noundef 1, i64 noundef %19, ptr noundef %22)
  store i64 0, ptr %15, align 8, !tbaa !27
  %24 = load ptr, ptr %14, align 8, !tbaa !29
  %.not9.i = icmp eq ptr %24, @strbuf_slopbuf
  br i1 %.not9.i, label %strbuf_setlen.exit, label %25

25:                                               ; preds = %graph_show_line_prefix.exit13
  store i8 0, ptr %24, align 1, !tbaa !30
  br label %strbuf_setlen.exit

strbuf_setlen.exit:                               ; preds = %graph_show_line_prefix.exit13, %25
  %26 = load i32, ptr %12, align 4, !tbaa !121
  %.not15 = icmp eq i32 %26, 0
  br i1 %.not15, label %39, label %27

27:                                               ; preds = %strbuf_setlen.exit
  %28 = load ptr, ptr %16, align 8, !tbaa !79
  %29 = getelementptr inbounds nuw i8, ptr %28, i64 1912
  %30 = load ptr, ptr %29, align 8, !tbaa !141
  %31 = call i32 @putc(i32 noundef 10, ptr noundef %30)
  %32 = load ptr, ptr %16, align 8, !tbaa !79
  %33 = getelementptr inbounds nuw i8, ptr %32, i64 1560
  %34 = load ptr, ptr %33, align 8, !tbaa !31
  %.not5.i12 = icmp eq ptr %34, null
  br i1 %.not5.i12, label %graph_show_line_prefix.exit13.backedge, label %35

graph_show_line_prefix.exit13.backedge:           ; preds = %27, %35
  br label %graph_show_line_prefix.exit13

35:                                               ; preds = %27
  %36 = getelementptr inbounds nuw i8, ptr %32, i64 1912
  %37 = load ptr, ptr %36, align 8, !tbaa !140
  %38 = call i32 @fputs(ptr noundef nonnull %34, ptr noundef %37)
  br label %graph_show_line_prefix.exit13.backedge

39:                                               ; preds = %strbuf_setlen.exit
  call void @strbuf_release(ptr noundef nonnull %2) #15
  br label %40

40:                                               ; preds = %11, %graph_show_line_prefix.exit, %39
  %.0 = phi i32 [ 1, %39 ], [ 0, %graph_show_line_prefix.exit ], [ 0, %11 ]
  call void @llvm.lifetime.end.p0(i64 24, ptr nonnull %2) #15
  ret i32 %.0
}